target datalayout = "e-m:e-p270:32:32-p271:32:32-p272:64:64-i64:64-i128:128-f80:128-n8:16:32:64-S128"
target triple = "x86_64-pc-linux-gnu"

@.str.18 = private unnamed_addr constant [34 x i8] c"%*sPossible %s%sFrequencies (%u):\00", align 1
@.str.19 = private unnamed_addr constant [1 x i8] zeroinitializer, align 1
@.str.20 = private unnamed_addr constant [2 x i8] c" \00", align 1
@.str.21 = private unnamed_addr constant [37 x i8] c"%*s---------------------------------\00", align 1
@.str.22 = private unnamed_addr constant [18 x i8] c"%*s  *%u MHz [%u]\00", align 1
@.str.23 = private unnamed_addr constant [17 x i8] c"%*s  *%u MHz [0]\00", align 1
@.str.24 = private unnamed_addr constant [17 x i8] c"%*s  *%u MHz [1]\00", align 1
@.str.25 = private unnamed_addr constant [9 x i8] c"%*s  ...\00", align 1

; Function Attrs: nounwind uwtable
define dso_local void @gpu_common_print_freqs(ptr noundef %0, i32 noundef %1, i32 noundef %2, ptr noundef %3, i32 noundef %4) #0 {
  %6 = alloca ptr, align 8
  %7 = alloca i32, align 4
  %8 = alloca i32, align 4
  %9 = alloca ptr, align 8
  %10 = alloca i32, align 4
  %11 = alloca i8, align 1
  %12 = alloca i32, align 4
  %13 = alloca i32, align 4
  %14 = alloca i32, align 4
  %15 = alloca i32, align 4
  %16 = alloca i32, align 4
  store ptr %0, ptr %6, align 8
  store i32 %1, ptr %7, align 4
  store i32 %2, ptr %8, align 4
  store ptr %3, ptr %9, align 8
  store i32 %4, ptr %10, align 4
  call void @llvm.lifetime.start.p0(i64 1, ptr %11) #6
  store i8 0, ptr %11, align 1
  call void @llvm.lifetime.start.p0(i64 4, ptr %12) #6
  call void @llvm.lifetime.start.p0(i64 4, ptr %13) #6
  call void @llvm.lifetime.start.p0(i64 4, ptr %14) #6
  %17 = load i32, ptr %7, align 4
  %18 = icmp ugt i32 %17, 5
  br i1 %18, label %19, label %20

19:                                               ; preds = %5
  store i8 1, ptr %11, align 1
  br label %20

20:                                               ; preds = %19, %5
  %21 = load i32, ptr %8, align 4
  %22 = load i32, ptr %10, align 4
  %23 = load ptr, ptr %9, align 8
  %24 = icmp ne ptr %23, null
  br i1 %24, label %25, label %27

25:                                               ; preds = %20
  %26 = load ptr, ptr %9, align 8
  br label %28

27:                                               ; preds = %20
  br label %28

28:                                               ; preds = %27, %25
  %29 = phi ptr [ %26, %25 ], [ @.str.19, %27 ]
  %30 = load ptr, ptr %9, align 8
  %31 = icmp ne ptr %30, null
  %32 = select i1 %31, ptr @.str.20, ptr @.str.19
  %33 = load i32, ptr %7, align 4
  call void (i32, ptr, ...) @slurm_log_var(i32 noundef %21, ptr noundef @.str.18, i32 noundef %22, ptr noundef @.str.19, ptr noundef %29, ptr noundef %32, i32 noundef %33)
  %34 = load i32, ptr %8, align 4
  %35 = load i32, ptr %10, align 4
  call void (i32, ptr, ...) @slurm_log_var(i32 noundef %34, ptr noundef @.str.21, i32 noundef %35, ptr noundef @.str.19)
  %36 = load i8, ptr %11, align 1, !range !11, !noundef !12
  %37 = trunc i8 %36 to i1
  br i1 %37, label %57, label %38

38:                                               ; preds = %28
  call void @llvm.lifetime.start.p0(i64 4, ptr %15) #6
  store i32 0, ptr %15, align 4
  br label %39

39:                                               ; preds = %53, %38
  %40 = load i32, ptr %15, align 4
  %41 = load i32, ptr %7, align 4
  %42 = icmp ult i32 %40, %41
  br i1 %42, label %44, label %43

43:                                               ; preds = %39
  call void @llvm.lifetime.end.p0(i64 4, ptr %15) #6
  br label %56

44:                                               ; preds = %39
  %45 = load i32, ptr %8, align 4
  %46 = load i32, ptr %10, align 4
  %47 = load ptr, ptr %6, align 8
  %48 = load i32, ptr %15, align 4
  %49 = sext i32 %48 to i64
  %50 = getelementptr inbounds i32, ptr %47, i64 %49
  %51 = load i32, ptr %50, align 4
  %52 = load i32, ptr %15, align 4
  call void (i32, ptr, ...) @slurm_log_var(i32 noundef %45, ptr noundef @.str.22, i32 noundef %46, ptr noundef @.str.19, i32 noundef %51, i32 noundef %52)
  br label %53

53:                                               ; preds = %44
  %54 = load i32, ptr %15, align 4
  %55 = add nsw i32 %54, 1
  store i32 %55, ptr %15, align 4
  br label %39, !llvm.loop !13

56:                                               ; preds = %43
  store i32 1, ptr %16, align 4
  br label %102

57:                                               ; preds = %28
  %58 = load i32, ptr %7, align 4
  %59 = sub i32 %58, 2
  store i32 %59, ptr %13, align 4
  %60 = load i32, ptr %7, align 4
  %61 = sub i32 %60, 1
  store i32 %61, ptr %14, align 4
  %62 = load i32, ptr %14, align 4
  %63 = udiv i32 %62, 2
  store i32 %63, ptr %12, align 4
  %64 = load i32, ptr %8, align 4
  %65 = load i32, ptr %10, align 4
  %66 = load ptr, ptr %6, align 8
  %67 = getelementptr inbounds i32, ptr %66, i64 0
  %68 = load i32, ptr %67, align 4
  call void (i32, ptr, ...) @slurm_log_var(i32 noundef %64, ptr noundef @.str.23, i32 noundef %65, ptr noundef @.str.19, i32 noundef %68)
  %69 = load i32, ptr %8, align 4
  %70 = load i32, ptr %10, align 4
  %71 = load ptr, ptr %6, align 8
  %72 = getelementptr inbounds i32, ptr %71, i64 1
  %73 = load i32, ptr %72, align 4
  call void (i32, ptr, ...) @slurm_log_var(i32 noundef %69, ptr noundef @.str.24, i32 noundef %70, ptr noundef @.str.19, i32 noundef %73)
  %74 = load i32, ptr %8, align 4
  %75 = load i32, ptr %10, align 4
  call void (i32, ptr, ...) @slurm_log_var(i32 noundef %74, ptr noundef @.str.25, i32 noundef %75, ptr noundef @.str.19)
  %76 = load i32, ptr %8, align 4
  %77 = load i32, ptr %10, align 4
  %78 = load ptr, ptr %6, align 8
  %79 = load i32, ptr %12, align 4
  %80 = zext i32 %79 to i64
  %81 = getelementptr inbounds nuw i32, ptr %78, i64 %80
  %82 = load i32, ptr %81, align 4
  %83 = load i32, ptr %12, align 4
  call void (i32, ptr, ...) @slurm_log_var(i32 noundef %76, ptr noundef @.str.22, i32 noundef %77, ptr noundef @.str.19, i32 noundef %82, i32 noundef %83)
  %84 = load i32, ptr %8, align 4
  %85 = load i32, ptr %10, align 4
  call void (i32, ptr, ...) @slurm_log_var(i32 noundef %84, ptr noundef @.str.25, i32 noundef %85, ptr noundef @.str.19)
  %86 = load i32, ptr %8, align 4
  %87 = load i32, ptr %10, align 4
  %88 = load ptr, ptr %6, align 8
  %89 = load i32, ptr %13, align 4
  %90 = zext i32 %89 to i64
  %91 = getelementptr inbounds nuw i32, ptr %88, i64 %90
  %92 = load i32, ptr %91, align 4
  %93 = load i32, ptr %13, align 4
  call void (i32, ptr, ...) @slurm_log_var(i32 noundef %86, ptr noundef @.str.22, i32 noundef %87, ptr noundef @.str.19, i32 noundef %92, i32 noundef %93)
  %94 = load i32, ptr %8, align 4
  %95 = load i32, ptr %10, align 4
  %96 = load ptr, ptr %6, align 8
  %97 = load i32, ptr %14, align 4
  %98 = zext i32 %97 to i64
  %99 = getelementptr inbounds nuw i32, ptr %96, i64 %98
  %100 = load i32, ptr %99, align 4
  %101 = load i32, ptr %14, align 4
  call void (i32, ptr, ...) @slurm_log_var(i32 noundef %94, ptr noundef @.str.22, i32 noundef %95, ptr noundef @.str.19, i32 noundef %100, i32 noundef %101)
  store i32 0, ptr %16, align 4
  br label %102

102:                                              ; preds = %57, %56
  call void @llvm.lifetime.end.p0(i64 4, ptr %14) #6
  call void @llvm.lifetime.end.p0(i64 4, ptr %13) #6
  call void @llvm.lifetime.end.p0(i64 4, ptr %12) #6
  call void @llvm.lifetime.end.p0(i64 1, ptr %11) #6
  %103 = load i32, ptr %16, align 4
  switch i32 %103, label %105 [
    i32 0, label %104
    i32 1, label %104
  ]

104:                                              ; preds = %102, %102
  ret void

105:                                              ; preds = %102
  unreachable
}