; Function Attrs: nounwind uwtable
define dso_local void @gpu_common_print_freqs(ptr noundef readonly captures(none) %0, i32 noundef %1, i32 noundef %2, ptr noundef %3, i32 noundef %4) local_unnamed_addr #0 {
  %6 = icmp ugt i32 %1, 5
  %.not = icmp eq ptr %3, null
  %7 = select i1 %.not, ptr @.str.19, ptr %3
  %8 = select i1 %.not, ptr @.str.19, ptr @.str.20
  tail call void (i32, ptr, ...) @slurm_log_var(i32 noundef %2, ptr noundef nonnull @.str.18, i32 noundef %4, ptr noundef nonnull @.str.19, ptr noundef nonnull %7, ptr noundef nonnull %8, i32 noundef %1) #7
  tail call void (i32, ptr, ...) @slurm_log_var(i32 noundef %2, ptr noundef nonnull @.str.21, i32 noundef %4, ptr noundef nonnull @.str.19) #7
  br i1 %6, label %12, label %.preheader

.preheader:                                       ; preds = %5
  %.not47 = icmp eq i32 %1, 0
  br i1 %.not47, label %.loopexit, label %.lr.ph.preheader

.lr.ph.preheader:                                 ; preds = %.preheader
  %wide.trip.count = zext nneg i32 %1 to i64
  br label %.lr.ph

.lr.ph:                                           ; preds = %.lr.ph.preheader, %.lr.ph
  %indvars.iv = phi i64 [ 0, %.lr.ph.preheader ], [ %indvars.iv.next, %.lr.ph ]
  %9 = getelementptr inbounds nuw i32, ptr %0, i64 %indvars.iv
  %10 = load i32, ptr %9, align 4
  %11 = trunc nuw nsw i64 %indvars.iv to i32
  tail call void (i32, ptr, ...) @slurm_log_var(i32 noundef %2, ptr noundef nonnull @.str.22, i32 noundef %4, ptr noundef nonnull @.str.19, i32 noundef %10, i32 noundef %11) #7
  %indvars.iv.next = add nuw nsw i64 %indvars.iv, 1
  %exitcond.not = icmp eq i64 %indvars.iv.next, %wide.trip.count
  br i1 %exitcond.not, label %.loopexit, label %.lr.ph, !llvm.loop !11

12:                                               ; preds = %5
  %13 = add i32 %1, -2
  %14 = add i32 %1, -1
  %15 = lshr i32 %14, 1
  %16 = load i32, ptr %0, align 4
  tail call void (i32, ptr, ...) @slurm_log_var(i32 noundef %2, ptr noundef nonnull @.str.23, i32 noundef %4, ptr noundef nonnull @.str.19, i32 noundef %16) #7
  %17 = getelementptr inbounds nuw i8, ptr %0, i64 4
  %18 = load i32, ptr %17, align 4
  tail call void (i32, ptr, ...) @slurm_log_var(i32 noundef %2, ptr noundef nonnull @.str.24, i32 noundef %4, ptr noundef nonnull @.str.19, i32 noundef %18) #7
  tail call void (i32, ptr, ...) @slurm_log_var(i32 noundef %2, ptr noundef nonnull @.str.25, i32 noundef %4, ptr noundef nonnull @.str.19) #7
  %19 = zext nneg i32 %15 to i64
  %20 = getelementptr inbounds nuw i32, ptr %0, i64 %19
  %21 = load i32, ptr %20, align 4
  tail call void (i32, ptr, ...) @slurm_log_var(i32 noundef %2, ptr noundef nonnull @.str.22, i32 noundef %4, ptr noundef nonnull @.str.19, i32 noundef %21, i32 noundef %15) #7
  tail call void (i32, ptr, ...) @slurm_log_var(i32 noundef %2, ptr noundef nonnull @.str.25, i32 noundef %4, ptr noundef nonnull @.str.19) #7
  %22 = zext i32 %13 to i64
  %23 = getelementptr inbounds nuw i32, ptr %0, i64 %22
  %24 = load i32, ptr %23, align 4
  tail call void (i32, ptr, ...) @slurm_log_var(i32 noundef %2, ptr noundef nonnull @.str.22, i32 noundef %4, ptr noundef nonnull @.str.19, i32 noundef %24, i32 noundef %13) #7
  %25 = zext i32 %14 to i64
  %26 = getelementptr inbounds nuw i32, ptr %0, i64 %25
  %27 = load i32, ptr %26, align 4
  tail call void (i32, ptr, ...) @slurm_log_var(i32 noundef %2, ptr noundef nonnull @.str.22, i32 noundef %4, ptr noundef nonnull @.str.19, i32 noundef %27, i32 noundef %14) #7
  br label %.loopexit

.loopexit:                                        ; preds = %.lr.ph, %.preheader, %12
  ret void
}